target datalayout = "e-m:e-p270:32:32-p271:32:32-p272:64:64-i64:64-i128:128-f80:128-n8:16:32:64-S128"
target triple = "x86_64-pc-linux-gnu"

%struct.Vec_Int_t_ = type { i32, i32, ptr }
%struct.Vec_Wec_t_ = type { i32, i32, ptr }

@.str.16 = private unnamed_addr constant [72 x i8] c"Computed %d windows with average support %.3f and average volume %.3f.\0A\00", align 1

; Function Attrs: inlinehint nounwind uwtable
define internal i32 @Vec_IntSize(ptr noundef %0) #2 {
  %2 = alloca ptr, align 8
  store ptr %0, ptr %2, align 8, !tbaa !55
  %3 = load ptr, ptr %2, align 8, !tbaa !55
  %4 = getelementptr inbounds nuw %struct.Vec_Int_t_, ptr %3, i32 0, i32 1
  %5 = load i32, ptr %4, align 4, !tbaa !78
  ret i32 %5
}

; Function Attrs: inlinehint nounwind uwtable
define internal i32 @Vec_IntEntry(ptr noundef %0, i32 noundef %1) #2 {
  %3 = alloca ptr, align 8
  %4 = alloca i32, align 4
  store ptr %0, ptr %3, align 8, !tbaa !55
  store i32 %1, ptr %4, align 4, !tbaa !8
  %5 = load ptr, ptr %3, align 8, !tbaa !55
  %6 = getelementptr inbounds nuw %struct.Vec_Int_t_, ptr %5, i32 0, i32 2
  %7 = load ptr, ptr %6, align 8, !tbaa !80
  %8 = load i32, ptr %4, align 4, !tbaa !8
  %9 = sext i32 %8 to i64
  %10 = getelementptr inbounds i32, ptr %7, i64 %9
  %11 = load i32, ptr %10, align 4, !tbaa !8
  ret i32 %11
}

; Function Attrs: inlinehint nounwind uwtable
define internal ptr @Vec_WecEntry(ptr noundef %0, i32 noundef %1) #2 {
  %3 = alloca ptr, align 8
  %4 = alloca i32, align 4
  store ptr %0, ptr %3, align 8, !tbaa !82
  store i32 %1, ptr %4, align 4, !tbaa !8
  %5 = load ptr, ptr %3, align 8, !tbaa !82
  %6 = getelementptr inbounds nuw %struct.Vec_Wec_t_, ptr %5, i32 0, i32 2
  %7 = load ptr, ptr %6, align 8, !tbaa !99
  %8 = load i32, ptr %4, align 4, !tbaa !8
  %9 = sext i32 %8 to i64
  %10 = getelementptr inbounds %struct.Vec_Int_t_, ptr %7, i64 %9
  ret ptr %10
}

; Function Attrs: inlinehint nounwind uwtable
define internal i32 @Vec_WecSize(ptr noundef %0) #2 {
  %2 = alloca ptr, align 8
  store ptr %0, ptr %2, align 8, !tbaa !82
  %3 = load ptr, ptr %2, align 8, !tbaa !82
  %4 = getelementptr inbounds nuw %struct.Vec_Wec_t_, ptr %3, i32 0, i32 1
  %5 = load i32, ptr %4, align 4, !tbaa !83
  ret i32 %5
}

; Function Attrs: nounwind uwtable
define void @Gia_ManPrintWinStats(ptr noundef %0) #0 {
  %2 = alloca ptr, align 8
  %3 = alloca ptr, align 8
  %4 = alloca i32, align 4
  %5 = alloca i32, align 4
  %6 = alloca i32, align 4
  store ptr %0, ptr %2, align 8, !tbaa !82
  call void @llvm.lifetime.start.p0(i64 8, ptr %3) #12
  call void @llvm.lifetime.start.p0(i64 4, ptr %4) #12
  call void @llvm.lifetime.start.p0(i64 4, ptr %5) #12
  store i32 0, ptr %5, align 4, !tbaa !8
  call void @llvm.lifetime.start.p0(i64 4, ptr %6) #12
  store i32 0, ptr %6, align 4, !tbaa !8
  store i32 0, ptr %4, align 4, !tbaa !8
  br label %7

7:                                                ; preds = %31, %1
  %8 = load i32, ptr %4, align 4, !tbaa !8
  %9 = load ptr, ptr %2, align 8, !tbaa !82
  %10 = call i32 @Vec_WecSize(ptr noundef %9)
  %11 = icmp slt i32 %8, %10
  br i1 %11, label %12, label %16

12:                                               ; preds = %7
  %13 = load ptr, ptr %2, align 8, !tbaa !82
  %14 = load i32, ptr %4, align 4, !tbaa !8
  %15 = call ptr @Vec_WecEntry(ptr noundef %13, i32 noundef %14)
  store ptr %15, ptr %3, align 8, !tbaa !55
  br label %16

16:                                               ; preds = %12, %7
  %17 = phi i1 [ false, %7 ], [ true, %12 ]
  br i1 %17, label %18, label %34

18:                                               ; preds = %16
  %19 = load ptr, ptr %3, align 8, !tbaa !55
  %20 = call i32 @Vec_IntEntry(ptr noundef %19, i32 noundef 0)
  %21 = load i32, ptr %5, align 4, !tbaa !8
  %22 = add nsw i32 %21, %20
  store i32 %22, ptr %5, align 4, !tbaa !8
  %23 = load ptr, ptr %3, align 8, !tbaa !55
  %24 = call i32 @Vec_IntSize(ptr noundef %23)
  %25 = sub nsw i32 %24, 1
  %26 = load ptr, ptr %3, align 8, !tbaa !55
  %27 = call i32 @Vec_IntEntry(ptr noundef %26, i32 noundef 0)
  %28 = sub nsw i32 %25, %27
  %29 = load i32, ptr %6, align 4, !tbaa !8
  %30 = add nsw i32 %29, %28
  store i32 %30, ptr %6, align 4, !tbaa !8
  br label %31

31:                                               ; preds = %18
  %32 = load i32, ptr %4, align 4, !tbaa !8
  %33 = add nsw i32 %32, 1
  store i32 %33, ptr %4, align 4, !tbaa !8
  br label %7, !llvm.loop !114

34:                                               ; preds = %16
  %35 = load ptr, ptr %2, align 8, !tbaa !82
  %36 = call i32 @Vec_WecSize(ptr noundef %35)
  %37 = load i32, ptr %5, align 4, !tbaa !8
  %38 = sitofp i32 %37 to double
  %39 = fmul double 1.000000e+00, %38
  %40 = load ptr, ptr %2, align 8, !tbaa !82
  %41 = call i32 @Vec_WecSize(ptr noundef %40)
  %42 = sitofp i32 %41 to double
  %43 = fdiv double %39, %42
  %44 = load i32, ptr %6, align 4, !tbaa !8
  %45 = sitofp i32 %44 to double
  %46 = fmul double 1.000000e+00, %45
  %47 = load ptr, ptr %2, align 8, !tbaa !82
  %48 = call i32 @Vec_WecSize(ptr noundef %47)
  %49 = sitofp i32 %48 to double
  %50 = fdiv double %46, %49
  %51 = call i32 (ptr, ...) @printf(ptr noundef @.str.16, i32 noundef %36, double noundef %43, double noundef %50)
  call void @llvm.lifetime.end.p0(i64 4, ptr %6) #12
  call void @llvm.lifetime.end.p0(i64 4, ptr %5) #12
  call void @llvm.lifetime.end.p0(i64 4, ptr %4) #12
  call void @llvm.lifetime.end.p0(i64 8, ptr %3) #12
  ret void
}