; Function Attrs: nofree nounwind uwtable
define void @Gia_ManPrintWinStats(ptr noundef readonly captures(none) %0) local_unnamed_addr #8 {
  %2 = getelementptr i8, ptr %0, i64 4
  %.val22 = load i32, ptr %2, align 4, !tbaa !100
  %3 = icmp sgt i32 %.val22, 0
  br i1 %3, label %.lr.ph, label %.critedge

.lr.ph:                                           ; preds = %1
  %4 = getelementptr i8, ptr %0, i64 8
  %.val = load ptr, ptr %4, align 8, !tbaa !34
  %wide.trip.count = zext nneg i32 %.val22 to i64
  br label %5

5:                                                ; preds = %.lr.ph, %5
  %indvars.iv = phi i64 [ 0, %.lr.ph ], [ %indvars.iv.next, %5 ]
  %.025 = phi i32 [ 0, %.lr.ph ], [ %13, %5 ]
  %.01424 = phi i32 [ 0, %.lr.ph ], [ %9, %5 ]
  %6 = getelementptr inbounds nuw %struct.Vec_Int_t_, ptr %.val, i64 %indvars.iv
  %7 = getelementptr i8, ptr %6, i64 8
  %.val17 = load ptr, ptr %7, align 8, !tbaa !36
  %8 = load i32, ptr %.val17, align 4, !tbaa !37
  %9 = add nsw i32 %8, %.01424
  %10 = getelementptr i8, ptr %6, i64 4
  %.val18 = load i32, ptr %10, align 4, !tbaa !89
  %11 = xor i32 %8, -1
  %12 = add i32 %.025, %11
  %13 = add i32 %12, %.val18
  %indvars.iv.next = add nuw nsw i64 %indvars.iv, 1
  %exitcond.not = icmp eq i64 %indvars.iv.next, %wide.trip.count
  br i1 %exitcond.not, label %.critedge.loopexit, label %5, !llvm.loop !131

.critedge.loopexit:                               ; preds = %5
  %14 = sitofp i32 %9 to double
  %15 = sitofp i32 %13 to double
  br label %.critedge

.critedge:                                        ; preds = %.critedge.loopexit, %1
  %.014.lcssa = phi double [ 0.000000e+00, %1 ], [ %14, %.critedge.loopexit ]
  %.0.lcssa = phi double [ 0.000000e+00, %1 ], [ %15, %.critedge.loopexit ]
  %16 = sitofp i32 %.val22 to double
  %17 = fdiv double %.014.lcssa, %16
  %18 = fdiv double %.0.lcssa, %16
  %19 = tail call i32 (ptr, ...) @printf(ptr noundef nonnull dereferenceable(1) @.str.16, i32 noundef %.val22, double noundef %17, double noundef %18)
  ret void
}